target datalayout = "e-m:e-p270:32:32-p271:32:32-p272:64:64-i64:64-i128:128-f80:128-n8:16:32:64-S128"
target triple = "x86_64-pc-linux-gnu"

%struct._GtkTreeIter = type { i32, ptr, ptr, ptr }

@.str.254 = private unnamed_addr constant [18 x i8] c"nothing selected\0A\00", align 1

; Function Attrs: nounwind uwtable
define internal void @_admin_edit_combo_box_job(ptr noundef %0, ptr noundef %1) #0 {
  %3 = alloca ptr, align 8
  %4 = alloca ptr, align 8
  %5 = alloca ptr, align 8
  %6 = alloca %struct._GtkTreeIter, align 8
  %7 = alloca i32, align 4
  %8 = alloca ptr, align 8
  %9 = alloca i32, align 4
  store ptr %0, ptr %3, align 8
  store ptr %1, ptr %4, align 8
  call void @llvm.lifetime.start.p0(i64 8, ptr %5) #11
  store ptr null, ptr %5, align 8
  call void @llvm.lifetime.start.p0(i64 32, ptr %6) #11
  call void @llvm.lifetime.start.p0(i64 4, ptr %7) #11
  store i32 0, ptr %7, align 4
  call void @llvm.lifetime.start.p0(i64 8, ptr %8) #11
  store ptr null, ptr %8, align 8
  %10 = load ptr, ptr %4, align 8
  %11 = icmp ne ptr %10, null
  br i1 %11, label %13, label %12

12:                                               ; preds = %2
  store i32 1, ptr %9, align 4
  br label %32

13:                                               ; preds = %2
  %14 = load ptr, ptr %3, align 8
  %15 = call i32 @gtk_combo_box_get_active_iter(ptr noundef %14, ptr noundef %6)
  %16 = icmp ne i32 %15, 0
  br i1 %16, label %18, label %17

17:                                               ; preds = %13
  call void (ptr, ...) @g_print(ptr noundef @.str.254)
  store i32 1, ptr %9, align 4
  br label %32

18:                                               ; preds = %13
  %19 = load ptr, ptr %3, align 8
  %20 = call ptr @gtk_combo_box_get_model(ptr noundef %19)
  store ptr %20, ptr %5, align 8
  %21 = load ptr, ptr %5, align 8
  %22 = icmp ne ptr %21, null
  br i1 %22, label %24, label %23

23:                                               ; preds = %18
  call void (ptr, ...) @g_print(ptr noundef @.str.254)
  store i32 1, ptr %9, align 4
  br label %32

24:                                               ; preds = %18
  %25 = load ptr, ptr %5, align 8
  call void (ptr, ptr, ...) @gtk_tree_model_get(ptr noundef %25, ptr noundef %6, i32 noundef 0, ptr noundef %8, i32 noundef -1)
  %26 = load ptr, ptr %5, align 8
  call void (ptr, ptr, ...) @gtk_tree_model_get(ptr noundef %26, ptr noundef %6, i32 noundef 1, ptr noundef %7, i32 noundef -1)
  %27 = load ptr, ptr %4, align 8
  %28 = load ptr, ptr %8, align 8
  %29 = load i32, ptr %7, align 4
  %30 = call ptr @_set_job_msg(ptr noundef %27, ptr noundef %28, i32 noundef %29)
  %31 = load ptr, ptr %8, align 8
  call void @g_free(ptr noundef %31)
  store i32 0, ptr %9, align 4
  br label %32

32:                                               ; preds = %24, %23, %17, %12
  call void @llvm.lifetime.end.p0(i64 8, ptr %8) #11
  call void @llvm.lifetime.end.p0(i64 4, ptr %7) #11
  call void @llvm.lifetime.end.p0(i64 32, ptr %6) #11
  call void @llvm.lifetime.end.p0(i64 8, ptr %5) #11
  %33 = load i32, ptr %9, align 4
  switch i32 %33, label %35 [
    i32 0, label %34
    i32 1, label %34
  ]

34:                                               ; preds = %32, %32
  ret void

35:                                               ; preds = %32
  unreachable
}