; Function Attrs: nounwind uwtable
define internal void @_admin_edit_combo_box_job(ptr noundef %0, ptr noundef %1) #0 {
  %3 = alloca %struct._GtkTreeIter, align 8
  %4 = alloca i32, align 4
  %5 = alloca ptr, align 8
  call void @llvm.lifetime.start.p0(i64 32, ptr nonnull %3) #16
  call void @llvm.lifetime.start.p0(i64 4, ptr nonnull %4) #16
  store i32 0, ptr %4, align 4
  call void @llvm.lifetime.start.p0(i64 8, ptr nonnull %5) #16
  store ptr null, ptr %5, align 8
  %.not = icmp eq ptr %1, null
  br i1 %.not, label %17, label %6

6:                                                ; preds = %2
  %7 = call i32 @gtk_combo_box_get_active_iter(ptr noundef %0, ptr noundef nonnull %3) #16
  %.not8 = icmp eq i32 %7, 0
  br i1 %.not8, label %8, label %9

8:                                                ; preds = %6
  call void (ptr, ...) @g_print(ptr noundef nonnull @.str.254) #16
  br label %17

9:                                                ; preds = %6
  %10 = call ptr @gtk_combo_box_get_model(ptr noundef %0) #16
  %.not9 = icmp eq ptr %10, null
  br i1 %.not9, label %11, label %12

11:                                               ; preds = %9
  call void (ptr, ...) @g_print(ptr noundef nonnull @.str.254) #16
  br label %17

12:                                               ; preds = %9
  call void (ptr, ptr, ...) @gtk_tree_model_get(ptr noundef nonnull %10, ptr noundef nonnull %3, i32 noundef 0, ptr noundef nonnull %5, i32 noundef -1) #16
  call void (ptr, ptr, ...) @gtk_tree_model_get(ptr noundef nonnull %10, ptr noundef nonnull %3, i32 noundef 1, ptr noundef nonnull %4, i32 noundef -1) #16
  %13 = load ptr, ptr %5, align 8
  %14 = load i32, ptr %4, align 4
  %15 = call fastcc ptr @_set_job_msg(ptr noundef nonnull %1, ptr noundef %13, i32 noundef %14)
  %16 = load ptr, ptr %5, align 8
  call void @g_free(ptr noundef %16) #16
  br label %17

17:                                               ; preds = %2, %12, %11, %8
  call void @llvm.lifetime.end.p0(i64 8, ptr nonnull %5) #16
  call void @llvm.lifetime.end.p0(i64 4, ptr nonnull %4) #16
  call void @llvm.lifetime.end.p0(i64 32, ptr nonnull %3) #16
  ret void
}